; ModuleID = '49/661.c'
source_filename = "49/661.c"
target datalayout = "e-m:e-p270:32:32-p271:32:32-p272:64:64-i64:64-f80:128-n8:16:32:64-S128"
target triple = "x86_64-pc-linux-gnu"

@.str = private unnamed_addr constant [3 x i8] c"%s\00", align 1
@.str.1 = private unnamed_addr constant [3 x i8] c"%c\00", align 1
@.str.2 = private unnamed_addr constant [2 x i8] c"\0A\00", align 1

; Function Attrs: noinline nounwind uwtable
define dso_local i32 @main() #0 {
  %1 = alloca i32, align 4
  %2 = alloca [600 x i8], align 16
  %3 = alloca i32, align 4
  %4 = alloca i32, align 4
  %5 = alloca i32, align 4
  %6 = alloca i32, align 4
  %7 = alloca i32, align 4
  store i32 0, i32* %1, align 4
  %8 = getelementptr inbounds [600 x i8], [600 x i8]* %2, i64 0, i64 0
  %9 = call i32 (i8*, ...) @__isoc99_scanf(i8* getelementptr inbounds ([3 x i8], [3 x i8]* @.str, i64 0, i64 0), i8* %8)
  %10 = getelementptr inbounds [600 x i8], [600 x i8]* %2, i64 0, i64 0
  %11 = call i64 @strlen(i8* %10) #3
  %12 = trunc i64 %11 to i32
  store i32 %12, i32* %3, align 4
  store i32 2, i32* %4, align 4
  br label %13

13:                                               ; preds = %169, %0
  %14 = load i32, i32* %4, align 4
  %15 = load i32, i32* %3, align 4
  %16 = icmp sle i32 %14, %15
  br i1 %16, label %17, label %172

17:                                               ; preds = %13
  %18 = load i32, i32* %4, align 4
  %19 = srem i32 %18, 2
  %20 = icmp eq i32 %19, 0
  br i1 %20, label %21, label %93

21:                                               ; preds = %17
  %22 = load i32, i32* %4, align 4
  %23 = sdiv i32 %22, 2
  %24 = sub nsw i32 %23, 1
  store i32 %24, i32* %5, align 4
  br label %25

25:                                               ; preds = %89, %21
  %26 = load i32, i32* %5, align 4
  %27 = load i32, i32* %3, align 4
  %28 = load i32, i32* %4, align 4
  %29 = sdiv i32 %28, 2
  %30 = sub nsw i32 %27, %29
  %31 = icmp slt i32 %26, %30
  br i1 %31, label %32, label %92

32:                                               ; preds = %25
  store i32 1, i32* %7, align 4
  store i32 1, i32* %6, align 4
  br label %33

33:                                               ; preds = %57, %32
  %34 = load i32, i32* %6, align 4
  %35 = load i32, i32* %4, align 4
  %36 = sdiv i32 %35, 2
  %37 = icmp sle i32 %34, %36
  br i1 %37, label %38, label %60

38:                                               ; preds = %33
  %39 = load i32, i32* %5, align 4
  %40 = load i32, i32* %6, align 4
  %41 = sub nsw i32 %39, %40
  %42 = add nsw i32 %41, 1
  %43 = sext i32 %42 to i64
  %44 = getelementptr inbounds [600 x i8], [600 x i8]* %2, i64 0, i64 %43
  %45 = load i8, i8* %44, align 1
  %46 = sext i8 %45 to i32
  %47 = load i32, i32* %5, align 4
  %48 = load i32, i32* %6, align 4
  %49 = add nsw i32 %47, %48
  %50 = sext i32 %49 to i64
  %51 = getelementptr inbounds [600 x i8], [600 x i8]* %2, i64 0, i64 %50
  %52 = load i8, i8* %51, align 1
  %53 = sext i8 %52 to i32
  %54 = icmp ne i32 %46, %53
  br i1 %54, label %55, label %56

55:                                               ; preds = %38
  store i32 0, i32* %7, align 4
  br label %60

56:                                               ; preds = %38
  br label %57

57:                                               ; preds = %56
  %58 = load i32, i32* %6, align 4
  %59 = add nsw i32 %58, 1
  store i32 %59, i32* %6, align 4
  br label %33

60:                                               ; preds = %55, %33
  %61 = load i32, i32* %7, align 4
  %62 = icmp eq i32 %61, 1
  br i1 %62, label %63, label %88

63:                                               ; preds = %60
  %64 = load i32, i32* %5, align 4
  %65 = load i32, i32* %4, align 4
  %66 = sdiv i32 %65, 2
  %67 = sub nsw i32 %64, %66
  %68 = add nsw i32 %67, 1
  store i32 %68, i32* %6, align 4
  br label %69

69:                                               ; preds = %83, %63
  %70 = load i32, i32* %6, align 4
  %71 = load i32, i32* %5, align 4
  %72 = load i32, i32* %4, align 4
  %73 = sdiv i32 %72, 2
  %74 = add nsw i32 %71, %73
  %75 = icmp sle i32 %70, %74
  br i1 %75, label %76, label %86

76:                                               ; preds = %69
  %77 = load i32, i32* %6, align 4
  %78 = sext i32 %77 to i64
  %79 = getelementptr inbounds [600 x i8], [600 x i8]* %2, i64 0, i64 %78
  %80 = load i8, i8* %79, align 1
  %81 = sext i8 %80 to i32
  %82 = call i32 (i8*, ...) @printf(i8* getelementptr inbounds ([3 x i8], [3 x i8]* @.str.1, i64 0, i64 0), i32 %81)
  br label %83

83:                                               ; preds = %76
  %84 = load i32, i32* %6, align 4
  %85 = add nsw i32 %84, 1
  store i32 %85, i32* %6, align 4
  br label %69

86:                                               ; preds = %69
  %87 = call i32 (i8*, ...) @printf(i8* getelementptr inbounds ([2 x i8], [2 x i8]* @.str.2, i64 0, i64 0))
  br label %88

88:                                               ; preds = %86, %60
  br label %89

89:                                               ; preds = %88
  %90 = load i32, i32* %5, align 4
  %91 = add nsw i32 %90, 1
  store i32 %91, i32* %5, align 4
  br label %25

92:                                               ; preds = %25
  br label %168

93:                                               ; preds = %17
  %94 = load i32, i32* %4, align 4
  %95 = srem i32 %94, 2
  %96 = icmp eq i32 %95, 1
  br i1 %96, label %97, label %167

97:                                               ; preds = %93
  %98 = load i32, i32* %4, align 4
  %99 = sdiv i32 %98, 2
  store i32 %99, i32* %5, align 4
  br label %100

100:                                              ; preds = %163, %97
  %101 = load i32, i32* %5, align 4
  %102 = load i32, i32* %3, align 4
  %103 = load i32, i32* %4, align 4
  %104 = sdiv i32 %103, 2
  %105 = sub nsw i32 %102, %104
  %106 = sub nsw i32 %105, 1
  %107 = icmp slt i32 %101, %106
  br i1 %107, label %108, label %166

108:                                              ; preds = %100
  store i32 1, i32* %7, align 4
  store i32 1, i32* %6, align 4
  br label %109

109:                                              ; preds = %132, %108
  %110 = load i32, i32* %6, align 4
  %111 = load i32, i32* %4, align 4
  %112 = sdiv i32 %111, 2
  %113 = icmp sle i32 %110, %112
  br i1 %113, label %114, label %135

114:                                              ; preds = %109
  %115 = load i32, i32* %5, align 4
  %116 = load i32, i32* %6, align 4
  %117 = sub nsw i32 %115, %116
  %118 = sext i32 %117 to i64
  %119 = getelementptr inbounds [600 x i8], [600 x i8]* %2, i64 0, i64 %118
  %120 = load i8, i8* %119, align 1
  %121 = sext i8 %120 to i32
  %122 = load i32, i32* %5, align 4
  %123 = load i32, i32* %6, align 4
  %124 = add nsw i32 %122, %123
  %125 = sext i32 %124 to i64
  %126 = getelementptr inbounds [600 x i8], [600 x i8]* %2, i64 0, i64 %125
  %127 = load i8, i8* %126, align 1
  %128 = sext i8 %127 to i32
  %129 = icmp ne i32 %121, %128
  br i1 %129, label %130, label %131

130:                                              ; preds = %114
  store i32 0, i32* %7, align 4
  br label %135

131:                                              ; preds = %114
  br label %132

132:                                              ; preds = %131
  %133 = load i32, i32* %6, align 4
  %134 = add nsw i32 %133, 1
  store i32 %134, i32* %6, align 4
  br label %109

135:                                              ; preds = %130, %109
  %136 = load i32, i32* %7, align 4
  %137 = icmp eq i32 %136, 1
  br i1 %137, label %138, label %162

138:                                              ; preds = %135
  %139 = load i32, i32* %5, align 4
  %140 = load i32, i32* %4, align 4
  %141 = sdiv i32 %140, 2
  %142 = sub nsw i32 %139, %141
  store i32 %142, i32* %6, align 4
  br label %143

143:                                              ; preds = %157, %138
  %144 = load i32, i32* %6, align 4
  %145 = load i32, i32* %5, align 4
  %146 = load i32, i32* %4, align 4
  %147 = sdiv i32 %146, 2
  %148 = add nsw i32 %145, %147
  %149 = icmp sle i32 %144, %148
  br i1 %149, label %150, label %160

150:                                              ; preds = %143
  %151 = load i32, i32* %6, align 4
  %152 = sext i32 %151 to i64
  %153 = getelementptr inbounds [600 x i8], [600 x i8]* %2, i64 0, i64 %152
  %154 = load i8, i8* %153, align 1
  %155 = sext i8 %154 to i32
  %156 = call i32 (i8*, ...) @printf(i8* getelementptr inbounds ([3 x i8], [3 x i8]* @.str.1, i64 0, i64 0), i32 %155)
  br label %157

157:                                              ; preds = %150
  %158 = load i32, i32* %5, align 4
  %159 = add nsw i32 %158, 1
  store i32 %159, i32* %5, align 4
  br label %143

160:                                              ; preds = %143
  %161 = call i32 (i8*, ...) @printf(i8* getelementptr inbounds ([2 x i8], [2 x i8]* @.str.2, i64 0, i64 0))
  br label %162

162:                                              ; preds = %160, %135
  br label %163

163:                                              ; preds = %162
  %164 = load i32, i32* %5, align 4
  %165 = add nsw i32 %164, 1
  store i32 %165, i32* %5, align 4
  br label %100

166:                                              ; preds = %100
  br label %167

167:                                              ; preds = %166, %93
  br label %168

168:                                              ; preds = %167, %92
  br label %169

169:                                              ; preds = %168
  %170 = load i32, i32* %4, align 4
  %171 = add nsw i32 %170, 1
  store i32 %171, i32* %4, align 4
  br label %13

172:                                              ; preds = %13
  ret i32 0
}

declare dso_local i32 @__isoc99_scanf(i8*, ...) #1

; Function Attrs: nounwind readonly
declare dso_local i64 @strlen(i8*) #2

declare dso_local i32 @printf(i8*, ...) #1


!llvm.module.flags = !{!0}
!llvm.ident = !{!1}

!0 = !{i32 1, !"wchar_size", i32 4}
!1 = !{!"clang version 10.0.0-4ubuntu1 "}
